target datalayout = "e-m:e-p270:32:32-p271:32:32-p272:64:64-i64:64-i128:128-f80:128-n8:16:32:64-S128"
target triple = "x86_64-pc-linux-gnu"

%struct.test_fixture = type { ptr, ptr }
%struct.ossl_cmp_ctx_st = type { ptr, ptr, ptr, i32, ptr, ptr, ptr, ptr, ptr, i32, ptr, ptr, i32, i32, i32, i32, i64, ptr, ptr, i32, i32, ptr, ptr, ptr, ptr, ptr, i32, i32, i32, ptr, ptr, ptr, ptr, ptr, i64, ptr, i32, i32, ptr, ptr, ptr, ptr, ptr, ptr, ptr, ptr, i32, i32, ptr, ptr, i32, ptr, ptr, i32, ptr, ptr, i32, i32, ptr, ptr, i32, i32, ptr, ptr, i32, ptr, i32, ptr, i32, ptr, ptr, ptr, ptr, ptr, ptr }

@.str = private unnamed_addr constant [31 x i8] c"../openssl/test/cmp_ctx_test.c\00", align 1
@.str.7 = private unnamed_addr constant [22 x i8] c"test_CTX_print_errors\00", align 1
@.str.92 = private unnamed_addr constant [35 x i8] c"OSSL_CMP_CTX_set_log_cb(ctx, NULL)\00", align 1
@.str.109 = private unnamed_addr constant [20 x i8] c"ctx->log_cb == NULL\00", align 1
@__func__.execute_CTX_print_errors_test = private unnamed_addr constant [30 x i8] c"execute_CTX_print_errors_test\00", align 1
@.str.110 = private unnamed_addr constant [52 x i8] c"OSSL_CMP_CTX_set_log_cb(ctx, msg_total_size_log_cb)\00", align 1
@.str.111 = private unnamed_addr constant [37 x i8] c"ctx->log_cb == msg_total_size_log_cb\00", align 1
@.str.112 = private unnamed_addr constant [4 x i8] c" : \00", align 1
@.str.113 = private unnamed_addr constant [6 x i8] c"data1\00", align 1
@.str.114 = private unnamed_addr constant [6 x i8] c"data2\00", align 1
@.str.115 = private unnamed_addr constant [2 x i8] c"\0A\00", align 1
@.str.116 = private unnamed_addr constant [9 x i8] c"new line\00", align 1
@.str.117 = private unnamed_addr constant [15 x i8] c"msg_total_size\00", align 1
@.str.118 = private unnamed_addr constant [14 x i8] c"expected_size\00", align 1
@msg_total_size = internal global i32 0, align 4
@.str.119 = private unnamed_addr constant [6 x i8] c"<SEP>\00", align 1

; Function Attrs: nounwind uwtable
define internal void @tear_down(ptr noundef %0) #0 {
  %2 = alloca ptr, align 8
  store ptr %0, ptr %2, align 8, !tbaa !15
  %3 = load ptr, ptr %2, align 8, !tbaa !15
  %4 = icmp ne ptr %3, null
  br i1 %4, label %5, label %9

5:                                                ; preds = %1
  %6 = load ptr, ptr %2, align 8, !tbaa !15
  %7 = getelementptr inbounds nuw %struct.test_fixture, ptr %6, i32 0, i32 1
  %8 = load ptr, ptr %7, align 8, !tbaa !17
  call void @OSSL_CMP_CTX_free(ptr noundef %8)
  br label %9

9:                                                ; preds = %5, %1
  %10 = load ptr, ptr %2, align 8, !tbaa !15
  call void @CRYPTO_free(ptr noundef %10, ptr noundef @.str, i32 noundef 25)
  ret void
}

; Function Attrs: nounwind uwtable
define internal i32 @execute_CTX_print_errors_test(ptr noundef %0) #0 {
  %2 = alloca ptr, align 8
  %3 = alloca ptr, align 8
  %4 = alloca i32, align 4
  %5 = alloca i32, align 4
  %6 = alloca i32, align 4
  store ptr %0, ptr %2, align 8, !tbaa !15
  call void @llvm.lifetime.start.p0(i64 8, ptr %3) #5
  %7 = load ptr, ptr %2, align 8, !tbaa !15
  %8 = getelementptr inbounds nuw %struct.test_fixture, ptr %7, i32 0, i32 1
  %9 = load ptr, ptr %8, align 8, !tbaa !17
  store ptr %9, ptr %3, align 8, !tbaa !11
  call void @llvm.lifetime.start.p0(i64 4, ptr %4) #5
  call void @llvm.lifetime.start.p0(i64 4, ptr %5) #5
  call void @llvm.lifetime.start.p0(i64 4, ptr %6) #5
  store i32 1, ptr %6, align 4, !tbaa !13
  %10 = load ptr, ptr %3, align 8, !tbaa !11
  %11 = call i32 @OSSL_CMP_CTX_set_log_cb(ptr noundef %10, ptr noundef null)
  %12 = icmp ne i32 %11, 0
  %13 = zext i1 %12 to i32
  %14 = call i32 @test_true(ptr noundef @.str, i32 noundef 157, ptr noundef @.str.92, i32 noundef %13)
  %15 = icmp ne i32 %14, 0
  br i1 %15, label %17, label %16

16:                                               ; preds = %1
  store i32 0, ptr %6, align 4, !tbaa !13
  br label %17

17:                                               ; preds = %16, %1
  %18 = load ptr, ptr %3, align 8, !tbaa !11
  %19 = getelementptr inbounds nuw %struct.ossl_cmp_ctx_st, ptr %18, i32 0, i32 2
  %20 = load ptr, ptr %19, align 8, !tbaa !51
  %21 = icmp eq ptr %20, null
  %22 = zext i1 %21 to i32
  %23 = icmp ne i32 %22, 0
  %24 = zext i1 %23 to i32
  %25 = call i32 @test_true(ptr noundef @.str, i32 noundef 159, ptr noundef @.str.109, i32 noundef %24)
  %26 = icmp ne i32 %25, 0
  br i1 %26, label %28, label %27

27:                                               ; preds = %17
  store i32 0, ptr %6, align 4, !tbaa !13
  br label %28

28:                                               ; preds = %27, %17
  call void @ERR_new()
  call void @ERR_set_debug(ptr noundef @.str, i32 noundef 163, ptr noundef @__func__.execute_CTX_print_errors_test)
  call void (i32, i32, ptr, ...) @ERR_set_error(i32 noundef 58, i32 noundef 102, ptr noundef null)
  %29 = load ptr, ptr %3, align 8, !tbaa !11
  call void @OSSL_CMP_CTX_print_errors(ptr noundef %29)
  %30 = load ptr, ptr %3, align 8, !tbaa !11
  %31 = call i32 @OSSL_CMP_CTX_set_log_cb(ptr noundef %30, ptr noundef @msg_total_size_log_cb)
  %32 = icmp ne i32 %31, 0
  %33 = zext i1 %32 to i32
  %34 = call i32 @test_true(ptr noundef @.str, i32 noundef 168, ptr noundef @.str.110, i32 noundef %33)
  %35 = icmp ne i32 %34, 0
  br i1 %35, label %37, label %36

36:                                               ; preds = %28
  store i32 0, ptr %6, align 4, !tbaa !13
  br label %37

37:                                               ; preds = %36, %28
  %38 = load ptr, ptr %3, align 8, !tbaa !11
  %39 = getelementptr inbounds nuw %struct.ossl_cmp_ctx_st, ptr %38, i32 0, i32 2
  %40 = load ptr, ptr %39, align 8, !tbaa !51
  %41 = icmp eq ptr %40, @msg_total_size_log_cb
  %42 = zext i1 %41 to i32
  %43 = icmp ne i32 %42, 0
  %44 = zext i1 %43 to i32
  %45 = call i32 @test_true(ptr noundef @.str, i32 noundef 170, ptr noundef @.str.111, i32 noundef %44)
  %46 = icmp ne i32 %45, 0
  br i1 %46, label %48, label %47

47:                                               ; preds = %37
  store i32 0, ptr %6, align 4, !tbaa !13
  br label %97

48:                                               ; preds = %37
  call void @ERR_new()
  call void @ERR_set_debug(ptr noundef @.str, i32 noundef 173, ptr noundef @__func__.execute_CTX_print_errors_test)
  call void (i32, i32, ptr, ...) @ERR_set_error(i32 noundef 58, i32 noundef 100, ptr noundef null)
  store i32 12, ptr %4, align 4, !tbaa !13
  call void @ERR_new()
  call void @ERR_set_debug(ptr noundef @.str, i32 noundef 175, ptr noundef @__func__.execute_CTX_print_errors_test)
  call void (i32, i32, ptr, ...) @ERR_set_error(i32 noundef 58, i32 noundef 103, ptr noundef null)
  %49 = load i32, ptr %4, align 4, !tbaa !13
  %50 = sext i32 %49 to i64
  %51 = add i64 %50, 13
  %52 = trunc i64 %51 to i32
  store i32 %52, ptr %4, align 4, !tbaa !13
  %53 = load i32, ptr %4, align 4, !tbaa !13
  store i32 %53, ptr %5, align 4, !tbaa !13
  call void @ERR_add_error_txt(ptr noundef @.str.112, ptr noundef @.str.113)
  %54 = load i32, ptr %5, align 4, !tbaa !13
  %55 = sext i32 %54 to i64
  %56 = add i64 %55, 6
  %57 = trunc i64 %56 to i32
  store i32 %57, ptr %5, align 4, !tbaa !13
  call void @ERR_add_error_txt(ptr noundef @.str.112, ptr noundef @.str.114)
  %58 = load i32, ptr %5, align 4, !tbaa !13
  %59 = sext i32 %58 to i64
  %60 = add i64 %59, 8
  %61 = trunc i64 %60 to i32
  store i32 %61, ptr %5, align 4, !tbaa !13
  call void @ERR_add_error_txt(ptr noundef @.str.115, ptr noundef @.str.116)
  %62 = load i32, ptr %5, align 4, !tbaa !13
  %63 = sext i32 %62 to i64
  %64 = add i64 %63, 9
  %65 = trunc i64 %64 to i32
  store i32 %65, ptr %5, align 4, !tbaa !13
  %66 = load ptr, ptr %3, align 8, !tbaa !11
  call void @OSSL_CMP_CTX_print_errors(ptr noundef %66)
  %67 = load i32, ptr @msg_total_size, align 4, !tbaa !13
  %68 = load i32, ptr %5, align 4, !tbaa !13
  %69 = call i32 @test_int_eq(ptr noundef @.str, i32 noundef 185, ptr noundef @.str.117, ptr noundef @.str.118, i32 noundef %67, i32 noundef %68)
  %70 = icmp ne i32 %69, 0
  br i1 %70, label %72, label %71

71:                                               ; preds = %48
  store i32 0, ptr %6, align 4, !tbaa !13
  br label %72

72:                                               ; preds = %71, %48
  call void @ERR_new()
  call void @ERR_set_debug(ptr noundef @.str, i32 noundef 188, ptr noundef @__func__.execute_CTX_print_errors_test)
  call void (i32, i32, ptr, ...) @ERR_set_error(i32 noundef 58, i32 noundef 100, ptr noundef null)
  store i32 13, ptr %4, align 4, !tbaa !13
  %73 = load i32, ptr %4, align 4, !tbaa !13
  store i32 %73, ptr %5, align 4, !tbaa !13
  br label %74

74:                                               ; preds = %77, %72
  %75 = load i32, ptr %5, align 4, !tbaa !13
  %76 = icmp slt i32 %75, 4096
  br i1 %76, label %77, label %82

77:                                               ; preds = %74
  call void @ERR_add_error_txt(ptr noundef @.str.119, ptr noundef @.str.120)
  %78 = load i32, ptr %5, align 4, !tbaa !13
  %79 = sext i32 %78 to i64
  %80 = add i64 %79, 514
  %81 = trunc i64 %80 to i32
  store i32 %81, ptr %5, align 4, !tbaa !13
  br label %74, !llvm.loop !52

82:                                               ; preds = %74
  %83 = load i32, ptr %4, align 4, !tbaa !13
  %84 = sext i32 %83 to i64
  %85 = sub i64 %84, 10
  %86 = load i32, ptr %5, align 4, !tbaa !13
  %87 = sext i32 %86 to i64
  %88 = add i64 %87, %85
  %89 = trunc i64 %88 to i32
  store i32 %89, ptr %5, align 4, !tbaa !13
  store i32 0, ptr @msg_total_size, align 4, !tbaa !13
  %90 = load ptr, ptr %3, align 8, !tbaa !11
  call void @OSSL_CMP_CTX_print_errors(ptr noundef %90)
  %91 = load i32, ptr @msg_total_size, align 4, !tbaa !13
  %92 = load i32, ptr %5, align 4, !tbaa !13
  %93 = call i32 @test_int_eq(ptr noundef @.str, i32 noundef 198, ptr noundef @.str.117, ptr noundef @.str.118, i32 noundef %91, i32 noundef %92)
  %94 = icmp ne i32 %93, 0
  br i1 %94, label %96, label %95

95:                                               ; preds = %82
  store i32 0, ptr %6, align 4, !tbaa !13
  br label %96

96:                                               ; preds = %95, %82
  br label %97

97:                                               ; preds = %96, %47
  %98 = load i32, ptr %6, align 4, !tbaa !13
  call void @llvm.lifetime.end.p0(i64 4, ptr %6) #5
  call void @llvm.lifetime.end.p0(i64 4, ptr %5) #5
  call void @llvm.lifetime.end.p0(i64 4, ptr %4) #5
  call void @llvm.lifetime.end.p0(i64 8, ptr %3) #5
  ret i32 %98
}

; Function Attrs: nounwind uwtable
define internal i32 @test_CTX_print_errors() #0 {
  %1 = alloca i32, align 4
  %2 = alloca ptr, align 8
  %3 = alloca i32, align 4
  %4 = alloca i32, align 4
  call void @llvm.lifetime.start.p0(i64 8, ptr %2) #5
  %5 = call ptr @set_up(ptr noundef @.str.7)
  store ptr %5, ptr %2, align 8, !tbaa !15
  call void @llvm.lifetime.start.p0(i64 4, ptr %3) #5
  store i32 0, ptr %3, align 4, !tbaa !13
  %6 = load ptr, ptr %2, align 8, !tbaa !15
  %7 = icmp eq ptr %6, null
  br i1 %7, label %8, label %9

8:                                                ; preds = %0
  store i32 0, ptr %1, align 4
  store i32 1, ptr %4, align 4
  br label %18

9:                                                ; preds = %0
  %10 = load ptr, ptr %2, align 8, !tbaa !15
  %11 = icmp ne ptr %10, null
  br i1 %11, label %12, label %16

12:                                               ; preds = %9
  %13 = load ptr, ptr %2, align 8, !tbaa !15
  %14 = call i32 @execute_CTX_print_errors_test(ptr noundef %13)
  store i32 %14, ptr %3, align 4, !tbaa !13
  %15 = load ptr, ptr %2, align 8, !tbaa !15
  call void @tear_down(ptr noundef %15)
  br label %16

16:                                               ; preds = %12, %9
  %17 = load i32, ptr %3, align 4, !tbaa !13
  store i32 %17, ptr %1, align 4
  store i32 1, ptr %4, align 4
  br label %18

18:                                               ; preds = %16, %8
  call void @llvm.lifetime.end.p0(i64 4, ptr %3) #5
  call void @llvm.lifetime.end.p0(i64 8, ptr %2) #5
  %19 = load i32, ptr %1, align 4
  ret i32 %19
}