; Function Attrs: nounwind uwtable
define internal range(i32 0, 2) i32 @test_CTX_print_errors() #1 {
  %1 = tail call fastcc ptr @set_up(ptr noundef nonnull @.str.7)
  %2 = icmp eq ptr %1, null
  br i1 %2, label %35, label %3

3:                                                ; preds = %0
  %4 = getelementptr i8, ptr %1, i64 8
  %.val = load ptr, ptr %4, align 8, !tbaa !4
  %5 = tail call i32 @OSSL_CMP_CTX_set_log_cb(ptr noundef %.val, ptr noundef null) #6
  %6 = icmp ne i32 %5, 0
  %7 = zext i1 %6 to i32
  %8 = tail call i32 @test_true(ptr noundef nonnull @.str, i32 noundef 157, ptr noundef nonnull @.str.92, i32 noundef %7) #6
  %9 = getelementptr inbounds nuw i8, ptr %.val, i64 16
  %10 = load ptr, ptr %9, align 8, !tbaa !40
  %11 = icmp eq ptr %10, null
  %12 = zext i1 %11 to i32
  %13 = tail call i32 @test_true(ptr noundef nonnull @.str, i32 noundef 159, ptr noundef nonnull @.str.109, i32 noundef %12) #6
  tail call void @ERR_new() #6
  tail call void @ERR_set_debug(ptr noundef nonnull @.str, i32 noundef 163, ptr noundef nonnull @__func__.execute_CTX_print_errors_test) #6
  tail call void (i32, i32, ptr, ...) @ERR_set_error(i32 noundef 58, i32 noundef 102, ptr noundef null) #6
  tail call void @OSSL_CMP_CTX_print_errors(ptr noundef %.val) #6
  %14 = tail call i32 @OSSL_CMP_CTX_set_log_cb(ptr noundef %.val, ptr noundef nonnull @msg_total_size_log_cb) #6
  %15 = icmp ne i32 %14, 0
  %16 = zext i1 %15 to i32
  %17 = tail call i32 @test_true(ptr noundef nonnull @.str, i32 noundef 168, ptr noundef nonnull @.str.110, i32 noundef %16) #6
  %18 = load ptr, ptr %9, align 8, !tbaa !40
  %19 = icmp eq ptr %18, @msg_total_size_log_cb
  %20 = zext i1 %19 to i32
  %21 = tail call i32 @test_true(ptr noundef nonnull @.str, i32 noundef 170, ptr noundef nonnull @.str.111, i32 noundef %20) #6
  %.not23.i = icmp eq i32 %21, 0
  br i1 %.not23.i, label %tear_down.exit, label %22

22:                                               ; preds = %3
  tail call void @ERR_new() #6
  tail call void @ERR_set_debug(ptr noundef nonnull @.str, i32 noundef 173, ptr noundef nonnull @__func__.execute_CTX_print_errors_test) #6
  tail call void (i32, i32, ptr, ...) @ERR_set_error(i32 noundef 58, i32 noundef 100, ptr noundef null) #6
  tail call void @ERR_new() #6
  tail call void @ERR_set_debug(ptr noundef nonnull @.str, i32 noundef 175, ptr noundef nonnull @__func__.execute_CTX_print_errors_test) #6
  tail call void (i32, i32, ptr, ...) @ERR_set_error(i32 noundef 58, i32 noundef 103, ptr noundef null) #6
  tail call void @ERR_add_error_txt(ptr noundef nonnull @.str.112, ptr noundef nonnull @.str.113) #6
  tail call void @ERR_add_error_txt(ptr noundef nonnull @.str.112, ptr noundef nonnull @.str.114) #6
  tail call void @ERR_add_error_txt(ptr noundef nonnull @.str.115, ptr noundef nonnull @.str.116) #6
  tail call void @OSSL_CMP_CTX_print_errors(ptr noundef nonnull %.val) #6
  %23 = load i32, ptr @msg_total_size, align 4, !tbaa !41
  %24 = tail call i32 @test_int_eq(ptr noundef nonnull @.str, i32 noundef 185, ptr noundef nonnull @.str.117, ptr noundef nonnull @.str.118, i32 noundef %23, i32 noundef 48) #6
  tail call void @ERR_new() #6
  tail call void @ERR_set_debug(ptr noundef nonnull @.str, i32 noundef 188, ptr noundef nonnull @__func__.execute_CTX_print_errors_test) #6
  tail call void (i32, i32, ptr, ...) @ERR_set_error(i32 noundef 58, i32 noundef 100, ptr noundef null) #6
  br label %25

25:                                               ; preds = %25, %22
  %.0205.i = phi i32 [ 13, %22 ], [ %26, %25 ]
  tail call void @ERR_add_error_txt(ptr noundef nonnull @.str.119, ptr noundef nonnull @.str.120) #6
  %26 = add nuw nsw i32 %.0205.i, 514
  %27 = icmp samesign ult i32 %.0205.i, 3582
  br i1 %27, label %25, label %28, !llvm.loop !42

28:                                               ; preds = %25
  %.not.i = icmp ne i32 %8, 0
  %.not22.i = icmp ne i32 %17, 0
  %.not21.i = icmp ne i32 %13, 0
  %.not24.i = icmp ne i32 %24, 0
  store i32 0, ptr @msg_total_size, align 4, !tbaa !41
  tail call void @OSSL_CMP_CTX_print_errors(ptr noundef nonnull %.val) #6
  %29 = load i32, ptr @msg_total_size, align 4, !tbaa !41
  %30 = tail call i32 @test_int_eq(ptr noundef nonnull @.str, i32 noundef 198, ptr noundef nonnull @.str.117, ptr noundef nonnull @.str.118, i32 noundef %29, i32 noundef 4128) #6
  %.not25.i = icmp ne i32 %30, 0
  %31 = select i1 %.not25.i, i1 %.not24.i, i1 false
  %32 = select i1 %31, i1 %.not22.i, i1 false
  %33 = select i1 %32, i1 %.not21.i, i1 false
  %narrow4.i = select i1 %33, i1 %.not.i, i1 false
  %spec.select27.i = zext i1 %narrow4.i to i32
  br label %tear_down.exit

tear_down.exit:                                   ; preds = %3, %28
  %.3.i = phi i32 [ 0, %3 ], [ %spec.select27.i, %28 ]
  %34 = load ptr, ptr %4, align 8, !tbaa !4
  tail call void @OSSL_CMP_CTX_free(ptr noundef %34) #6
  tail call void @CRYPTO_free(ptr noundef nonnull %1, ptr noundef nonnull @.str, i32 noundef 25) #6
  br label %35

35:                                               ; preds = %0, %tear_down.exit
  %.05 = phi i32 [ %.3.i, %tear_down.exit ], [ 0, %0 ]
  ret i32 %.05
}